(dp1
S'C:\\Users\\Rok\\Documents\\Sola\\3. letnik\\OS2\\Seminarska\\Python\\test\\c.txt'
p2
(dp3
S'checksum'
p4
S'c85a78bdb420fb518941a7b9c2f9eec1bdbab758c87b462becfea4e6193fee34b90f0157357d337d45559c8d209e46c749167d106f6d9b44b3638e1eb6477144'
p5
sS'time'
p6
F1303299382.7752786
ssS'C:\\Users\\Rok\\Documents\\Sola\\3. letnik\\OS2\\Seminarska\\Python\\test\\a\\c\\f.txt'
p7
(dp8
g4
S'aa530986dac68dcf03e8ff9a5f0aea205f5a4b88669133bc37e677b0db49b486cea549afac0d9ba943b7a9e9bb125a21ee0250eb5622f11030f39bbe37bd8d6b'
p9
sg6
F1303232051.223151
ssS'C:\\Users\\Rok\\Documents\\Sola\\3. letnik\\OS2\\Seminarska\\Python\\test\\b.txt'
p10
(dp11
g4
S'c85a78bdb420fb518941a7b9c2f9eec1bdbab758c87b462becfea4e6193fee34b90f0157357d337d45559c8d209e46c749167d106f6d9b44b3638e1eb6477144'
p12
sg6
F1303299382.7752786
ssS'C:\\Users\\Rok\\Documents\\Sola\\3. letnik\\OS2\\Seminarska\\Python\\test\\a\\d.txt'
p13
(dp14
g4
S'16c974960be0c1e8206cf68db1b33b6668fa83836afea9c2d57abc28c6c3d8b944d8512d9f07613fab472e14377a784f687367e546ba9c7c07081380211015bc'
p15
sg6
F1303232039.1914628
ssS'C:\\Users\\Rok\\Documents\\Sola\\3. letnik\\OS2\\Seminarska\\Python\\test\\a\\c.txt'
p16
(dp17
g4
S'a158c726d443e126a2b41857db9d8f2c5eb2fa546118c6d0ffaf463fa202bda8ea5726698294047618ec80a8b39d97eb24112a866a3c035a066f58216456e794'
p18
sg6
F1303232033.1901195
ssS'C:\\Users\\Rok\\Documents\\Sola\\3. letnik\\OS2\\Seminarska\\Python\\test\\a\\c\\e.txt'
p19
(dp20
g4
S'17a27af6f5824b238e87cbb754c289898ce075d308032ad41cf26251ed9099b97fa34e8addf6cd527e2404ec61f52419c1efa7b56d4a5b472a71ed9ccca93606'
p21
sg6
F1303232045.7208362
ssS'C:\\Users\\Rok\\Documents\\Sola\\3. letnik\\OS2\\Seminarska\\Python\\test\\British_Ninja.jpg'
p22
(dp23
g4
S'd3e6acfb70715b0b33746ddd5b780706c3f72bcf1c27a1f08c2d0701e92e1f47465535ebf6366ba94df7a8c805082aa45e47ecc014930cd43e0ac66e90868e0e'
p24
sg6
F1202423042
ssS'C:\\Users\\Rok\\Documents\\Sola\\3. letnik\\OS2\\Seminarska\\Python\\test\\a.txt'
p25
(dp26
S'checksum'
p27
S'868d92b3f8597a7d1ea94f5eda878d9c31c204745e8cd23cbc625953b59c91cb202b12d49d44a7059cc180937e60540bf38bd736404d05e024b08088d8a19371'
p28
sS'time'
p29
F1303321105.8439002
ssS'C:\\Users\\Rok\\Documents\\Sola\\3. letnik\\OS2\\Seminarska\\Python\\test\\b\\h.txt'
p30
(dp31
g4
S'98326a8d630912f9749af9769642e9dafdd18c32ebdedbdc351fec776c87d6f016dab27fd051c7b5c18742f653b3263e970d80e644ff553adb411ce7f8890867'
p32
sg6
F1303232087.1242044
ssS'C:\\Users\\Rok\\Documents\\Sola\\3. letnik\\OS2\\Seminarska\\Python\\test\\b\\g.txt'
p33
(dp34
g4
S'35077bf961b0669350326fdb1957ff18e1a9fbe245bfcc0d88034915540c5b32d56a27284ebb332ed0a1c81cd50e1a5c4429741db336f80d892e4326d54b91f2'
p35
sg6
F1303232081.1978655
ssS'C:\\Users\\Rok\\Documents\\Sola\\3. letnik\\OS2\\Seminarska\\Python\\test\\3 Doors Down - Kryptoniteeeeee.mp3'
p36
(dp37
g4
S'5d0ec72bf9727785e2ba5db44b926e7ecfc3c9034724599c2ea76e62045e5d13b9bad0e37d8b8d7cc5013ae4c254ccbc6cf004860d93132e89568f757ef4a35a'
p38
sg6
F1261506988
ssS'C:\\Users\\Rok\\Documents\\Sola\\3. letnik\\OS2\\Seminarska\\Python\\test\\Billy Talent - Rusted From The Rain (2009).AVI'
p39
(dp40
g4
S'b68cd072b4c3e46184efb369f2e0c5f469ca7c4a4928de5b11c301ca2d487e2113d203cadbea8a84cbd47391514554bf6b213d10323076a638a5a9aea9406913'
p41
sg6
F1250695548
ssS'C:\\Users\\Rok\\Documents\\Sola\\3. letnik\\OS2\\Seminarska\\Python\\test\\L4D_lolll.png'
p42
(dp43
g4
S'44ce080ef884fc0dcd135120ddcee887dbfe599c3c96f17bc164c1f1296ac284f22b037da20ddfb6bbaa233d66268c678075819a9d9353076fb2031e415a6ae8'
p44
sg6
F1273940846
ss.